target datalayout = "e-m:e-p270:32:32-p271:32:32-p272:64:64-i64:64-i128:128-f80:128-n8:16:32:64-S128"
target triple = "x86_64-pc-linux-gnu"

%"class.std::__cxx11::basic_string" = type { %"struct.std::__cxx11::basic_string<char>::_Alloc_hider", i64, %union.anon }
%"struct.std::__cxx11::basic_string<char>::_Alloc_hider" = type { ptr }
%union.anon = type { i64, [8 x i8] }
%struct._Save_errno.272 = type { i32 }

@_ZTISt16invalid_argument = external constant ptr
@.str.188 = private unnamed_addr constant [20 x i8] c"invalid string '%s'\00", align 1
@.str.189 = private unnamed_addr constant [5 x i8] c"stod\00", align 1

; Function Attrs: mustprogress nounwind uwtable
define linkonce_odr dso_local noundef zeroext i1 @_ZZN9__gnu_cxx6__stoaIddcJEEET0_PFT_PKT1_PPS3_DpT2_EPKcS5_PmS9_EN10_Range_chk6_S_chkEdSt17integral_constantIbLb0EE(double noundef %0) #5 comdat align 2 {
  %2 = alloca double, align 8
  store double %0, ptr %2, align 8
  ret i1 false
}

; Function Attrs: mustprogress nounwind uwtable
define linkonce_odr dso_local void @_ZZN9__gnu_cxx6__stoaIddcJEEET0_PFT_PKT1_PPS3_DpT2_EPKcS5_PmS9_EN11_Save_errnoD2Ev(ptr noundef nonnull align 4 dereferenceable(4) %0) unnamed_addr #5 comdat align 2 {
  %2 = alloca ptr, align 8
  store ptr %0, ptr %2, align 8
  %3 = load ptr, ptr %2, align 8
  %4 = call ptr @__errno_location() #25
  %5 = load i32, ptr %4, align 4
  %6 = icmp eq i32 %5, 0
  br i1 %6, label %7, label %11

7:                                                ; preds = %1
  %8 = getelementptr inbounds nuw %struct._Save_errno.272, ptr %3, i32 0, i32 0
  %9 = load i32, ptr %8, align 4
  %10 = call ptr @__errno_location() #25
  store i32 %9, ptr %10, align 4
  br label %11

11:                                               ; preds = %7, %1
  ret void
}

; Function Attrs: mustprogress nounwind uwtable
define linkonce_odr dso_local void @_ZZN9__gnu_cxx6__stoaIddcJEEET0_PFT_PKT1_PPS3_DpT2_EPKcS5_PmS9_EN11_Save_errnoC2Ev(ptr noundef nonnull align 4 dereferenceable(4) %0) unnamed_addr #5 comdat align 2 {
  %2 = alloca ptr, align 8
  store ptr %0, ptr %2, align 8
  %3 = load ptr, ptr %2, align 8
  %4 = getelementptr inbounds nuw %struct._Save_errno.272, ptr %3, i32 0, i32 0
  %5 = call ptr @__errno_location() #25
  %6 = load i32, ptr %5, align 4
  store i32 %6, ptr %4, align 4
  %7 = call ptr @__errno_location() #25
  store i32 0, ptr %7, align 4
  ret void
}

; Function Attrs: mustprogress uwtable
define linkonce_odr dso_local noundef double @_ZN9__gnu_cxx6__stoaIddcJEEET0_PFT_PKT1_PPS3_DpT2_EPKcS5_PmS9_(ptr noundef %0, ptr noundef %1, ptr noundef %2, ptr noundef %3) #4 comdat personality ptr @__gxx_personality_v0 {
  %5 = alloca ptr, align 8
  %6 = alloca ptr, align 8
  %7 = alloca ptr, align 8
  %8 = alloca ptr, align 8
  %9 = alloca double, align 8
  %10 = alloca ptr, align 8
  %11 = alloca %struct._Save_errno.272, align 4
  %12 = alloca double, align 8
  %13 = alloca ptr, align 8
  %14 = alloca i32, align 4
  store ptr %0, ptr %5, align 8
  store ptr %1, ptr %6, align 8
  store ptr %2, ptr %7, align 8
  store ptr %3, ptr %8, align 8
  call void @_ZZN9__gnu_cxx6__stoaIddcJEEET0_PFT_PKT1_PPS3_DpT2_EPKcS5_PmS9_EN11_Save_errnoC2Ev(ptr noundef nonnull align 4 dereferenceable(4) %11)
  %15 = load ptr, ptr %5, align 8
  %16 = load ptr, ptr %7, align 8
  %17 = invoke noundef double %15(ptr noundef %16, ptr noundef %10)
          to label %18 unwind label %25

18:                                               ; preds = %4
  store double %17, ptr %12, align 8
  %19 = load ptr, ptr %10, align 8
  %20 = load ptr, ptr %7, align 8
  %21 = icmp eq ptr %19, %20
  br i1 %21, label %22, label %29

22:                                               ; preds = %18
  %23 = load ptr, ptr %6, align 8
  invoke void @_ZSt24__throw_invalid_argumentPKc(ptr noundef %23) #21
          to label %24 unwind label %25

24:                                               ; preds = %22
  unreachable

25:                                               ; preds = %39, %33, %22, %4
  %26 = landingpad { ptr, i32 }
          cleanup
  %27 = extractvalue { ptr, i32 } %26, 0
  store ptr %27, ptr %13, align 8
  %28 = extractvalue { ptr, i32 } %26, 1
  store i32 %28, ptr %14, align 4
  call void @_ZZN9__gnu_cxx6__stoaIddcJEEET0_PFT_PKT1_PPS3_DpT2_EPKcS5_PmS9_EN11_Save_errnoD2Ev(ptr noundef nonnull align 4 dereferenceable(4) %11) #3
  br label %57

29:                                               ; preds = %18
  %30 = call ptr @__errno_location() #25
  %31 = load i32, ptr %30, align 4
  %32 = icmp eq i32 %31, 34
  br i1 %32, label %37, label %33

33:                                               ; preds = %29
  %34 = load double, ptr %12, align 8
  %35 = invoke noundef zeroext i1 @_ZZN9__gnu_cxx6__stoaIddcJEEET0_PFT_PKT1_PPS3_DpT2_EPKcS5_PmS9_EN10_Range_chk6_S_chkEdSt17integral_constantIbLb0EE(double noundef %34)
          to label %36 unwind label %25

36:                                               ; preds = %33
  br label %37

37:                                               ; preds = %36, %29
  %38 = phi i1 [ true, %29 ], [ %35, %36 ]
  br i1 %38, label %39, label %42

39:                                               ; preds = %37
  %40 = load ptr, ptr %6, align 8
  invoke void @_ZSt20__throw_out_of_rangePKc(ptr noundef %40) #21
          to label %41 unwind label %25

41:                                               ; preds = %39
  unreachable

42:                                               ; preds = %37
  %43 = load double, ptr %12, align 8
  store double %43, ptr %9, align 8
  br label %44

44:                                               ; preds = %42
  br label %45

45:                                               ; preds = %44
  %46 = load ptr, ptr %8, align 8
  %47 = icmp ne ptr %46, null
  br i1 %47, label %48, label %55

48:                                               ; preds = %45
  %49 = load ptr, ptr %10, align 8
  %50 = load ptr, ptr %7, align 8
  %51 = ptrtoint ptr %49 to i64
  %52 = ptrtoint ptr %50 to i64
  %53 = sub i64 %51, %52
  %54 = load ptr, ptr %8, align 8
  store i64 %53, ptr %54, align 8
  br label %55

55:                                               ; preds = %48, %45
  %56 = load double, ptr %9, align 8
  call void @_ZZN9__gnu_cxx6__stoaIddcJEEET0_PFT_PKT1_PPS3_DpT2_EPKcS5_PmS9_EN11_Save_errnoD2Ev(ptr noundef nonnull align 4 dereferenceable(4) %11) #3
  ret double %56

57:                                               ; preds = %25
  %58 = load ptr, ptr %13, align 8
  %59 = load i32, ptr %14, align 4
  %60 = insertvalue { ptr, i32 } poison, ptr %58, 0
  %61 = insertvalue { ptr, i32 } %60, i32 %59, 1
  resume { ptr, i32 } %61
}

; Function Attrs: mustprogress uwtable
define linkonce_odr dso_local noundef double @_ZNSt7__cxx114stodERKNS_12basic_stringIcSt11char_traitsIcESaIcEEEPm(ptr noundef nonnull align 8 dereferenceable(32) %0, ptr noundef %1) #4 comdat {
  %3 = alloca ptr, align 8
  %4 = alloca ptr, align 8
  store ptr %0, ptr %3, align 8
  store ptr %1, ptr %4, align 8
  %5 = load ptr, ptr %3, align 8
  %6 = call noundef ptr @_ZNKSt7__cxx1112basic_stringIcSt11char_traitsIcESaIcEE5c_strEv(ptr noundef nonnull align 8 dereferenceable(32) %5) #3
  %7 = load ptr, ptr %4, align 8
  %8 = call noundef double @_ZN9__gnu_cxx6__stoaIddcJEEET0_PFT_PKT1_PPS3_DpT2_EPKcS5_PmS9_(ptr noundef @strtod, ptr noundef @.str.189, ptr noundef %6, ptr noundef %7)
  ret double %8
}

; Function Attrs: mustprogress uwtable
define internal noundef double @_ZN32pxrInternal_v0_24__pxrReserved__12_GLOBAL__N_114StringToDoubleERKNSt7__cxx1112basic_stringIcSt11char_traitsIcESaIcEEE(ptr noundef nonnull align 8 dereferenceable(32) %0) #4 personality ptr @__gxx_personality_v0 {
  %2 = alloca ptr, align 8
  %3 = alloca i64, align 8
  %4 = alloca double, align 8
  %5 = alloca %"class.std::__cxx11::basic_string", align 8
  %6 = alloca ptr, align 8
  %7 = alloca i32, align 4
  %8 = alloca i1, align 1
  store ptr %0, ptr %2, align 8
  %9 = load ptr, ptr %2, align 8
  %10 = call noundef double @_ZNSt7__cxx114stodERKNS_12basic_stringIcSt11char_traitsIcESaIcEEEPm(ptr noundef nonnull align 8 dereferenceable(32) %9, ptr noundef %3)
  store double %10, ptr %4, align 8
  %11 = load i64, ptr %3, align 8
  %12 = load ptr, ptr %2, align 8
  %13 = call noundef i64 @_ZNKSt7__cxx1112basic_stringIcSt11char_traitsIcESaIcEE4sizeEv(ptr noundef nonnull align 8 dereferenceable(32) %12) #3
  %14 = icmp ne i64 %11, %13
  br i1 %14, label %15, label %33

15:                                               ; preds = %1
  store i1 true, ptr %8, align 1
  %16 = call ptr @__cxa_allocate_exception(i64 16) #3
  %17 = load ptr, ptr %2, align 8
  %18 = call noundef ptr @_ZNKSt7__cxx1112basic_stringIcSt11char_traitsIcESaIcEE5c_strEv(ptr noundef nonnull align 8 dereferenceable(32) %17) #3
  invoke void (ptr, ptr, ...) @_ZN32pxrInternal_v0_24__pxrReserved__14TfStringPrintfB5cxx11EPKcz(ptr dead_on_unwind writable sret(%"class.std::__cxx11::basic_string") align 8 %5, ptr noundef @.str.188, ptr noundef %18)
          to label %19 unwind label %21

19:                                               ; preds = %15
  invoke void @_ZNSt16invalid_argumentC1ERKNSt7__cxx1112basic_stringIcSt11char_traitsIcESaIcEEE(ptr noundef nonnull align 8 dereferenceable(16) %16, ptr noundef nonnull align 8 dereferenceable(32) %5)
          to label %20 unwind label %25

20:                                               ; preds = %19
  store i1 false, ptr %8, align 1
  invoke void @__cxa_throw(ptr %16, ptr @_ZTISt16invalid_argument, ptr @_ZNSt16invalid_argumentD1Ev) #21
          to label %40 unwind label %25

21:                                               ; preds = %15
  %22 = landingpad { ptr, i32 }
          cleanup
  %23 = extractvalue { ptr, i32 } %22, 0
  store ptr %23, ptr %6, align 8
  %24 = extractvalue { ptr, i32 } %22, 1
  store i32 %24, ptr %7, align 4
  br label %29

25:                                               ; preds = %20, %19
  %26 = landingpad { ptr, i32 }
          cleanup
  %27 = extractvalue { ptr, i32 } %26, 0
  store ptr %27, ptr %6, align 8
  %28 = extractvalue { ptr, i32 } %26, 1
  store i32 %28, ptr %7, align 4
  call void @_ZNSt7__cxx1112basic_stringIcSt11char_traitsIcESaIcEED1Ev(ptr noundef nonnull align 8 dereferenceable(32) %5) #3
  br label %29

29:                                               ; preds = %25, %21
  %30 = load i1, ptr %8, align 1
  br i1 %30, label %31, label %32

31:                                               ; preds = %29
  call void @__cxa_free_exception(ptr %16) #3
  br label %32

32:                                               ; preds = %31, %29
  br label %35

33:                                               ; preds = %1
  %34 = load double, ptr %4, align 8
  ret double %34

35:                                               ; preds = %32
  %36 = load ptr, ptr %6, align 8
  %37 = load i32, ptr %7, align 4
  %38 = insertvalue { ptr, i32 } poison, ptr %36, 0
  %39 = insertvalue { ptr, i32 } %38, i32 %37, 1
  resume { ptr, i32 } %39

40:                                               ; preds = %20
  unreachable
}