; Function Attrs: mustprogress norecurse uwtable
define internal fastcc noundef double @_ZN32pxrInternal_v0_24__pxrReserved__12_GLOBAL__N_114StringToDoubleERKNSt7__cxx1112basic_stringIcSt11char_traitsIcESaIcEEE(ptr noundef nonnull align 8 dereferenceable(32) %0) unnamed_addr #5 personality ptr @__gxx_personality_v0 {
  %2 = alloca ptr, align 8
  %3 = alloca %"class.std::__cxx11::basic_string", align 8
  %4 = tail call noundef ptr @_ZNKSt7__cxx1112basic_stringIcSt11char_traitsIcESaIcEE5c_strEv(ptr noundef nonnull align 8 dereferenceable(32) %0) #35
  call void @llvm.lifetime.start.p0(i64 8, ptr nonnull %2)
  %5 = tail call ptr @__errno_location() #42
  %6 = load i32, ptr %5, align 4
  store i32 0, ptr %5, align 4
  %7 = call noundef double @strtod(ptr noundef %4, ptr noundef nonnull %2)
  %8 = load ptr, ptr %2, align 8
  %9 = icmp eq ptr %8, %4
  br i1 %9, label %10, label %17

10:                                               ; preds = %1
  invoke void @_ZSt24__throw_invalid_argumentPKc(ptr noundef nonnull @.str.189) #38
          to label %11 unwind label %12

11:                                               ; preds = %10
  unreachable

12:                                               ; preds = %.critedge.i.i, %10
  %13 = landingpad { ptr, i32 }
          cleanup
  %14 = load i32, ptr %5, align 4
  %15 = icmp eq i32 %14, 0
  br i1 %15, label %16, label %common.resume

16:                                               ; preds = %12
  store i32 %6, ptr %5, align 4
  br label %common.resume

common.resume:                                    ; preds = %37, %35, %12, %16
  %common.resume.op = phi { ptr, i32 } [ %13, %16 ], [ %13, %12 ], [ %36, %35 ], [ %.pn12, %37 ]
  resume { ptr, i32 } %common.resume.op

17:                                               ; preds = %1
  %18 = load i32, ptr %5, align 4
  %19 = icmp eq i32 %18, 34
  br i1 %19, label %.critedge.i.i, label %21

.critedge.i.i:                                    ; preds = %17
  invoke void @_ZSt20__throw_out_of_rangePKc(ptr noundef nonnull @.str.189) #38
          to label %20 unwind label %12

20:                                               ; preds = %.critedge.i.i
  unreachable

21:                                               ; preds = %17
  %22 = ptrtoint ptr %8 to i64
  %23 = ptrtoint ptr %4 to i64
  %24 = sub i64 %22, %23
  %25 = icmp eq i32 %18, 0
  br i1 %25, label %26, label %_ZNSt7__cxx114stodERKNS_12basic_stringIcSt11char_traitsIcESaIcEEEPm.exit

26:                                               ; preds = %21
  store i32 %6, ptr %5, align 4
  br label %_ZNSt7__cxx114stodERKNS_12basic_stringIcSt11char_traitsIcESaIcEEEPm.exit

_ZNSt7__cxx114stodERKNS_12basic_stringIcSt11char_traitsIcESaIcEEEPm.exit: ; preds = %21, %26
  call void @llvm.lifetime.end.p0(i64 8, ptr nonnull %2)
  %27 = tail call noundef i64 @_ZNKSt7__cxx1112basic_stringIcSt11char_traitsIcESaIcEE4sizeEv(ptr noundef nonnull align 8 dereferenceable(32) %0) #35
  %.not = icmp eq i64 %24, %27
  br i1 %.not, label %38, label %28

28:                                               ; preds = %_ZNSt7__cxx114stodERKNS_12basic_stringIcSt11char_traitsIcESaIcEEEPm.exit
  %29 = tail call ptr @__cxa_allocate_exception(i64 16) #35
  %30 = tail call noundef ptr @_ZNKSt7__cxx1112basic_stringIcSt11char_traitsIcESaIcEE5c_strEv(ptr noundef nonnull align 8 dereferenceable(32) %0) #35
  invoke void (ptr, ptr, ...) @_ZN32pxrInternal_v0_24__pxrReserved__14TfStringPrintfB5cxx11EPKcz(ptr dead_on_unwind nonnull writable sret(%"class.std::__cxx11::basic_string") align 8 %3, ptr noundef nonnull @.str.188, ptr noundef %30)
          to label %31 unwind label %.thread

31:                                               ; preds = %28
  invoke void @_ZNSt16invalid_argumentC1ERKNSt7__cxx1112basic_stringIcSt11char_traitsIcESaIcEEE(ptr noundef nonnull align 8 dereferenceable(16) %29, ptr noundef nonnull align 8 dereferenceable(32) %3)
          to label %33 unwind label %.thread13

.thread13:                                        ; preds = %31
  %32 = landingpad { ptr, i32 }
          cleanup
  call void @_ZNSt7__cxx1112basic_stringIcSt11char_traitsIcESaIcEED1Ev(ptr noundef nonnull align 8 dereferenceable(32) %3) #35
  br label %37

33:                                               ; preds = %31
  invoke void @__cxa_throw(ptr nonnull %29, ptr nonnull @_ZTISt16invalid_argument, ptr nonnull @_ZNSt16invalid_argumentD1Ev) #38
          to label %39 unwind label %35

.thread:                                          ; preds = %28
  %34 = landingpad { ptr, i32 }
          cleanup
  br label %37

35:                                               ; preds = %33
  %36 = landingpad { ptr, i32 }
          cleanup
  call void @_ZNSt7__cxx1112basic_stringIcSt11char_traitsIcESaIcEED1Ev(ptr noundef nonnull align 8 dereferenceable(32) %3) #35
  br label %common.resume

37:                                               ; preds = %.thread13, %.thread
  %.pn12 = phi { ptr, i32 } [ %34, %.thread ], [ %32, %.thread13 ]
  call void @__cxa_free_exception(ptr %29) #35
  br label %common.resume

38:                                               ; preds = %_ZNSt7__cxx114stodERKNS_12basic_stringIcSt11char_traitsIcESaIcEEEPm.exit
  ret double %7

39:                                               ; preds = %33
  unreachable
}